target datalayout = "e-m:e-p270:32:32-p271:32:32-p272:64:64-i64:64-i128:128-f80:128-n8:16:32:64-S128"
target triple = "x86_64-pc-linux-gnu"

%class.WarningHandler = type { i8, %"struct.gmx::EnumerationArray", i32, i32, %"class.std::filesystem::__cxx11::path" }
%"struct.gmx::EnumerationArray" = type { [3 x i32] }
%"class.std::filesystem::__cxx11::path" = type { %"class.std::__cxx11::basic_string", %"struct.std::filesystem::__cxx11::path::_List" }
%"class.std::__cxx11::basic_string" = type { %"struct.std::__cxx11::basic_string<char>::_Alloc_hider", i64, %union.anon }
%"struct.std::__cxx11::basic_string<char>::_Alloc_hider" = type { ptr }
%union.anon = type { i64, [8 x i8] }
%"struct.std::filesystem::__cxx11::path::_List" = type { %"class.std::unique_ptr" }
%"class.std::unique_ptr" = type { %"struct.std::__uniq_ptr_data" }
%"struct.std::__uniq_ptr_data" = type { %"class.std::__uniq_ptr_impl" }
%"class.std::__uniq_ptr_impl" = type { %"class.std::tuple" }
%"class.std::tuple" = type { %"struct.std::_Tuple_impl" }
%"struct.std::_Tuple_impl" = type { %"struct.std::_Head_base.1" }
%"struct.std::_Head_base.1" = type { ptr }

; Function Attrs: mustprogress nounwind uwtable
define linkonce_odr noundef nonnull align 4 dereferenceable(4) ptr @_ZNK3gmx16EnumerationArrayI11WarningTypeiLS1_3EEixES1_(ptr noundef nonnull align 4 dereferenceable(12) %0, i32 noundef %1) #1 comdat align 2 {
  %3 = alloca ptr, align 8
  %4 = alloca i32, align 4
  store ptr %0, ptr %3, align 8, !tbaa !71
  store i32 %1, ptr %4, align 4, !tbaa !51
  %5 = load ptr, ptr %3, align 8
  %6 = getelementptr inbounds nuw %"struct.gmx::EnumerationArray", ptr %5, i32 0, i32 0
  %7 = load i32, ptr %4, align 4, !tbaa !51
  %8 = sext i32 %7 to i64
  %9 = getelementptr inbounds nuw [3 x i32], ptr %6, i64 0, i64 %8
  ret ptr %9
}

; Function Attrs: mustprogress uwtable
define linkonce_odr noundef i32 @_ZNK14WarningHandler10errorCountEv(ptr noundef nonnull align 8 dereferenceable(64) %0) #0 comdat align 2 {
  %2 = alloca ptr, align 8
  store ptr %0, ptr %2, align 8, !tbaa !4
  %3 = load ptr, ptr %2, align 8
  %4 = getelementptr inbounds nuw %class.WarningHandler, ptr %3, i32 0, i32 1
  %5 = call noundef nonnull align 4 dereferenceable(4) ptr @_ZNK3gmx16EnumerationArrayI11WarningTypeiLS1_3EEixES1_(ptr noundef nonnull align 4 dereferenceable(12) %4, i32 noundef 2)
  %6 = load i32, ptr %5, align 4, !tbaa !11
  ret i32 %6
}

; Function Attrs: mustprogress uwtable
define void @_Z19check_warning_errorRK14WarningHandleriRKNSt10filesystem7__cxx114pathEi(ptr noundef nonnull align 8 dereferenceable(64) %0, i32 noundef %1, ptr noundef nonnull align 8 dereferenceable(40) %2, i32 noundef %3) #0 {
  %5 = alloca ptr, align 8
  %6 = alloca i32, align 4
  %7 = alloca ptr, align 8
  %8 = alloca i32, align 4
  store ptr %0, ptr %5, align 8, !tbaa !4
  store i32 %1, ptr %6, align 4, !tbaa !11
  store ptr %2, ptr %7, align 8, !tbaa !9
  store i32 %3, ptr %8, align 4, !tbaa !11
  %9 = load ptr, ptr %5, align 8, !tbaa !4
  %10 = call noundef i32 @_ZNK14WarningHandler10errorCountEv(ptr noundef nonnull align 8 dereferenceable(64) %9)
  %11 = icmp sgt i32 %10, 0
  br i1 %11, label %12, label %17

12:                                               ; preds = %4
  %13 = load ptr, ptr %5, align 8, !tbaa !4
  %14 = load i32, ptr %6, align 4, !tbaa !11
  %15 = load ptr, ptr %7, align 8, !tbaa !9
  %16 = load i32, ptr %8, align 4, !tbaa !11
  call void @_ZL24check_warning_error_implRK14WarningHandleriRKNSt10filesystem7__cxx114pathEi(ptr noundef nonnull align 8 dereferenceable(64) %13, i32 noundef %14, ptr noundef nonnull align 8 dereferenceable(40) %15, i32 noundef %16) #16
  unreachable

17:                                               ; preds = %4
  ret void
}