; Function Attrs: mustprogress uwtable
define void @_Z19check_warning_errorRK14WarningHandleriRKNSt10filesystem7__cxx114pathEi(ptr noundef nonnull readonly align 8 captures(none) dereferenceable(64) %0, i32 noundef %1, ptr noundef nonnull readonly align 8 captures(none) dereferenceable(40) %2, i32 noundef %3) local_unnamed_addr #0 {
  %5 = getelementptr inbounds nuw i8, ptr %0, i64 12
  %6 = load i32, ptr %5, align 4, !tbaa !35
  %7 = icmp sgt i32 %6, 0
  br i1 %7, label %8, label %9

8:                                                ; preds = %4
  tail call fastcc void @_ZL24check_warning_error_implRK14WarningHandleriRKNSt10filesystem7__cxx114pathEi(ptr noundef nonnull align 8 dereferenceable(64) %0, i32 noundef %1, ptr noundef nonnull align 8 dereferenceable(40) %2, i32 noundef %3) #16
  unreachable

9:                                                ; preds = %4
  ret void
}